
test:     file format elf64-x86-64


Disassembly of section .init:

0000000000001000 <_init>:
    1000:	f3 0f 1e fa          	endbr64
    1004:	48 83 ec 08          	sub    $0x8,%rsp
    1008:	48 8b 05 d9 2f 00 00 	mov    0x2fd9(%rip),%rax        # 3fe8 <__gmon_start__@Base>
    100f:	48 85 c0             	test   %rax,%rax
    1012:	74 02                	je     1016 <_init+0x16>
    1014:	ff d0                	call   *%rax
    1016:	48 83 c4 08          	add    $0x8,%rsp
    101a:	c3                   	ret

Disassembly of section .plt:

0000000000001020 <.plt>:
    1020:	ff 35 8a 2f 00 00    	push   0x2f8a(%rip)        # 3fb0 <_GLOBAL_OFFSET_TABLE_+0x8>
    1026:	ff 25 8c 2f 00 00    	jmp    *0x2f8c(%rip)        # 3fb8 <_GLOBAL_OFFSET_TABLE_+0x10>
    102c:	0f 1f 40 00          	nopl   0x0(%rax)
    1030:	f3 0f 1e fa          	endbr64
    1034:	68 00 00 00 00       	push   $0x0
    1039:	e9 e2 ff ff ff       	jmp    1020 <_init+0x20>
    103e:	66 90                	xchg   %ax,%ax
    1040:	f3 0f 1e fa          	endbr64
    1044:	68 01 00 00 00       	push   $0x1
    1049:	e9 d2 ff ff ff       	jmp    1020 <_init+0x20>
    104e:	66 90                	xchg   %ax,%ax
    1050:	f3 0f 1e fa          	endbr64
    1054:	68 02 00 00 00       	push   $0x2
    1059:	e9 c2 ff ff ff       	jmp    1020 <_init+0x20>
    105e:	66 90                	xchg   %ax,%ax

Disassembly of section .plt.got:

0000000000001060 <__cxa_finalize@plt>:
    1060:	f3 0f 1e fa          	endbr64
    1064:	ff 25 8e 2f 00 00    	jmp    *0x2f8e(%rip)        # 3ff8 <__cxa_finalize@GLIBC_2.2.5>
    106a:	66 0f 1f 44 00 00    	nopw   0x0(%rax,%rax,1)

Disassembly of section .plt.sec:

0000000000001070 <puts@plt>:
    1070:	f3 0f 1e fa          	endbr64
    1074:	ff 25 46 2f 00 00    	jmp    *0x2f46(%rip)        # 3fc0 <puts@GLIBC_2.2.5>
    107a:	66 0f 1f 44 00 00    	nopw   0x0(%rax,%rax,1)

0000000000001080 <printf@plt>:
    1080:	f3 0f 1e fa          	endbr64
    1084:	ff 25 3e 2f 00 00    	jmp    *0x2f3e(%rip)        # 3fc8 <printf@GLIBC_2.2.5>
    108a:	66 0f 1f 44 00 00    	nopw   0x0(%rax,%rax,1)

0000000000001090 <fgets@plt>:
    1090:	f3 0f 1e fa          	endbr64
    1094:	ff 25 36 2f 00 00    	jmp    *0x2f36(%rip)        # 3fd0 <fgets@GLIBC_2.2.5>
    109a:	66 0f 1f 44 00 00    	nopw   0x0(%rax,%rax,1)

Disassembly of section .text:

00000000000010a0 <_start>:
    10a0:	f3 0f 1e fa          	endbr64
    10a4:	31 ed                	xor    %ebp,%ebp
    10a6:	49 89 d1             	mov    %rdx,%r9
    10a9:	5e                   	pop    %rsi
    10aa:	48 89 e2             	mov    %rsp,%rdx
    10ad:	48 83 e4 f0          	and    $0xfffffffffffffff0,%rsp
    10b1:	50                   	push   %rax
    10b2:	54                   	push   %rsp
    10b3:	45 31 c0             	xor    %r8d,%r8d
    10b6:	31 c9                	xor    %ecx,%ecx
    10b8:	48 8d 3d 94 01 00 00 	lea    0x194(%rip),%rdi        # 1253 <main>
    10bf:	ff 15 13 2f 00 00    	call   *0x2f13(%rip)        # 3fd8 <__libc_start_main@GLIBC_2.34>
    10c5:	f4                   	hlt
    10c6:	66 2e 0f 1f 84 00 00 	cs nopw 0x0(%rax,%rax,1)
    10cd:	00 00 00 

00000000000010d0 <deregister_tm_clones>:
    10d0:	48 8d 3d 39 2f 00 00 	lea    0x2f39(%rip),%rdi        # 4010 <stdin@GLIBC_2.2.5>
    10d7:	48 8d 05 32 2f 00 00 	lea    0x2f32(%rip),%rax        # 4010 <stdin@GLIBC_2.2.5>
    10de:	48 39 f8             	cmp    %rdi,%rax
    10e1:	74 15                	je     10f8 <deregister_tm_clones+0x28>
    10e3:	48 8b 05 f6 2e 00 00 	mov    0x2ef6(%rip),%rax        # 3fe0 <_ITM_deregisterTMCloneTable@Base>
    10ea:	48 85 c0             	test   %rax,%rax
    10ed:	74 09                	je     10f8 <deregister_tm_clones+0x28>
    10ef:	ff e0                	jmp    *%rax
    10f1:	0f 1f 80 00 00 00 00 	nopl   0x0(%rax)
    10f8:	c3                   	ret
    10f9:	0f 1f 80 00 00 00 00 	nopl   0x0(%rax)

0000000000001100 <register_tm_clones>:
    1100:	48 8d 3d 09 2f 00 00 	lea    0x2f09(%rip),%rdi        # 4010 <stdin@GLIBC_2.2.5>
    1107:	48 8d 35 02 2f 00 00 	lea    0x2f02(%rip),%rsi        # 4010 <stdin@GLIBC_2.2.5>
    110e:	48 29 fe             	sub    %rdi,%rsi
    1111:	48 89 f0             	mov    %rsi,%rax
    1114:	48 c1 ee 3f          	shr    $0x3f,%rsi
    1118:	48 c1 f8 03          	sar    $0x3,%rax
    111c:	48 01 c6             	add    %rax,%rsi
    111f:	48 d1 fe             	sar    $1,%rsi
    1122:	74 14                	je     1138 <register_tm_clones+0x38>
    1124:	48 8b 05 c5 2e 00 00 	mov    0x2ec5(%rip),%rax        # 3ff0 <_ITM_registerTMCloneTable@Base>
    112b:	48 85 c0             	test   %rax,%rax
    112e:	74 08                	je     1138 <register_tm_clones+0x38>
    1130:	ff e0                	jmp    *%rax
    1132:	66 0f 1f 44 00 00    	nopw   0x0(%rax,%rax,1)
    1138:	c3                   	ret
    1139:	0f 1f 80 00 00 00 00 	nopl   0x0(%rax)

0000000000001140 <__do_global_dtors_aux>:
    1140:	f3 0f 1e fa          	endbr64
    1144:	80 3d cd 2e 00 00 00 	cmpb   $0x0,0x2ecd(%rip)        # 4018 <completed.0>
    114b:	75 2b                	jne    1178 <__do_global_dtors_aux+0x38>
    114d:	55                   	push   %rbp
    114e:	48 83 3d a2 2e 00 00 	cmpq   $0x0,0x2ea2(%rip)        # 3ff8 <__cxa_finalize@GLIBC_2.2.5>
    1155:	00 
    1156:	48 89 e5             	mov    %rsp,%rbp
    1159:	74 0c                	je     1167 <__do_global_dtors_aux+0x27>
    115b:	48 8b 3d a6 2e 00 00 	mov    0x2ea6(%rip),%rdi        # 4008 <__dso_handle>
    1162:	e8 f9 fe ff ff       	call   1060 <__cxa_finalize@plt>
    1167:	e8 64 ff ff ff       	call   10d0 <deregister_tm_clones>
    116c:	c6 05 a5 2e 00 00 01 	movb   $0x1,0x2ea5(%rip)        # 4018 <completed.0>
    1173:	5d                   	pop    %rbp
    1174:	c3                   	ret
    1175:	0f 1f 00             	nopl   (%rax)
    1178:	c3                   	ret
    1179:	0f 1f 80 00 00 00 00 	nopl   0x0(%rax)

0000000000001180 <frame_dummy>:
    1180:	f3 0f 1e fa          	endbr64
    1184:	e9 77 ff ff ff       	jmp    1100 <register_tm_clones>

0000000000001189 <secret>:
    1189:	f3 0f 1e fa          	endbr64
    118d:	55                   	push   %rbp
    118e:	48 89 e5             	mov    %rsp,%rbp
    1191:	48 8d 05 70 0e 00 00 	lea    0xe70(%rip),%rax        # 2008 <_IO_stdin_used+0x8>
    1198:	48 89 c7             	mov    %rax,%rdi
    119b:	e8 d0 fe ff ff       	call   1070 <puts@plt>
    11a0:	90                   	nop
    11a1:	5d                   	pop    %rbp
    11a2:	c3                   	ret

00000000000011a3 <game>:
    11a3:	f3 0f 1e fa          	endbr64
    11a7:	55                   	push   %rbp
    11a8:	48 89 e5             	mov    %rsp,%rbp
    11ab:	48 83 ec 40          	sub    $0x40,%rsp
    11af:	48 8d 05 7a 0e 00 00 	lea    0xe7a(%rip),%rax        # 2030 <_IO_stdin_used+0x30>
    11b6:	48 89 c7             	mov    %rax,%rdi
    11b9:	e8 b2 fe ff ff       	call   1070 <puts@plt>
    11be:	48 8d 05 93 0e 00 00 	lea    0xe93(%rip),%rax        # 2058 <_IO_stdin_used+0x58>
    11c5:	48 89 c7             	mov    %rax,%rdi
    11c8:	e8 a3 fe ff ff       	call   1070 <puts@plt>
    11cd:	48 8d 05 ac 0e 00 00 	lea    0xeac(%rip),%rax        # 2080 <_IO_stdin_used+0x80>
    11d4:	48 89 c7             	mov    %rax,%rdi
    11d7:	e8 94 fe ff ff       	call   1070 <puts@plt>
    11dc:	48 8d 05 4d 0e 00 00 	lea    0xe4d(%rip),%rax        # 2030 <_IO_stdin_used+0x30>
    11e3:	48 89 c7             	mov    %rax,%rdi
    11e6:	e8 85 fe ff ff       	call   1070 <puts@plt>
    11eb:	48 8d 05 b6 0e 00 00 	lea    0xeb6(%rip),%rax        # 20a8 <_IO_stdin_used+0xa8>
    11f2:	48 89 c7             	mov    %rax,%rdi
    11f5:	e8 76 fe ff ff       	call   1070 <puts@plt>
    11fa:	48 8d 05 cc 0e 00 00 	lea    0xecc(%rip),%rax        # 20cd <_IO_stdin_used+0xcd>
    1201:	48 89 c7             	mov    %rax,%rdi
    1204:	b8 00 00 00 00       	mov    $0x0,%eax
    1209:	e8 72 fe ff ff       	call   1080 <printf@plt>
    120e:	48 8b 15 fb 2d 00 00 	mov    0x2dfb(%rip),%rdx        # 4010 <stdin@GLIBC_2.2.5>
    1215:	48 8d 45 c0          	lea    -0x40(%rbp),%rax
    1219:	be 40 00 00 00       	mov    $0x40,%esi
    121e:	48 89 c7             	mov    %rax,%rdi
    1221:	e8 6a fe ff ff       	call   1090 <fgets@plt>
    1226:	48 8d 45 c0          	lea    -0x40(%rbp),%rax
    122a:	48 89 c6             	mov    %rax,%rsi
    122d:	48 8d 05 ad 0e 00 00 	lea    0xead(%rip),%rax        # 20e1 <_IO_stdin_used+0xe1>
    1234:	48 89 c7             	mov    %rax,%rdi
    1237:	b8 00 00 00 00       	mov    $0x0,%eax
    123c:	e8 3f fe ff ff       	call   1080 <printf@plt>
    1241:	48 8d 05 aa 0e 00 00 	lea    0xeaa(%rip),%rax        # 20f2 <_IO_stdin_used+0xf2>
    1248:	48 89 c7             	mov    %rax,%rdi
    124b:	e8 20 fe ff ff       	call   1070 <puts@plt>
    1250:	90                   	nop
    1251:	c9                   	leave
    1252:	c3                   	ret

0000000000001253 <main>:
    1253:	f3 0f 1e fa          	endbr64
    1257:	55                   	push   %rbp
    1258:	48 89 e5             	mov    %rsp,%rbp
    125b:	b8 00 00 00 00       	mov    $0x0,%eax
    1260:	e8 3e ff ff ff       	call   11a3 <game>
    1265:	48 8d 05 9c 0e 00 00 	lea    0xe9c(%rip),%rax        # 2108 <_IO_stdin_used+0x108>
    126c:	48 89 c7             	mov    %rax,%rdi
    126f:	e8 fc fd ff ff       	call   1070 <puts@plt>
    1274:	b8 00 00 00 00       	mov    $0x0,%eax
    1279:	5d                   	pop    %rbp
    127a:	c3                   	ret

Disassembly of section .fini:

000000000000127c <_fini>:
    127c:	f3 0f 1e fa          	endbr64
    1280:	48 83 ec 08          	sub    $0x8,%rsp
    1284:	48 83 c4 08          	add    $0x8,%rsp
    1288:	c3                   	ret
